; ModuleID = '29/631.c'
source_filename = "29/631.c"
target datalayout = "e-m:e-p270:32:32-p271:32:32-p272:64:64-i64:64-f80:128-n8:16:32:64-S128"
target triple = "x86_64-pc-linux-gnu"

@.str = private unnamed_addr constant [3 x i8] c"%d\00", align 1
@.str.1 = private unnamed_addr constant [7 x i8] c"%.3lf\0A\00", align 1

; Function Attrs: noinline nounwind uwtable
define dso_local i32 @main() #0 {
  %1 = alloca i32, align 4
  %2 = alloca [1000 x double], align 16
  %3 = alloca [1000 x double], align 16
  %4 = alloca [1000 x double], align 16
  %5 = alloca double, align 8
  %6 = alloca i32, align 4
  %7 = alloca i32, align 4
  %8 = alloca i32, align 4
  %9 = alloca i32, align 4
  store i32 0, i32* %1, align 4
  store double 0.000000e+00, double* %5, align 8
  %10 = call i32 (i8*, ...) @__isoc99_scanf(i8* getelementptr inbounds ([3 x i8], [3 x i8]* @.str, i64 0, i64 0), i32* %7)
  store i32 0, i32* %9, align 4
  br label %11

11:                                               ; preds = %70, %0
  %12 = load i32, i32* %9, align 4
  %13 = load i32, i32* %7, align 4
  %14 = icmp slt i32 %12, %13
  br i1 %14, label %15, label %73

15:                                               ; preds = %11
  %16 = call i32 (i8*, ...) @__isoc99_scanf(i8* getelementptr inbounds ([3 x i8], [3 x i8]* @.str, i64 0, i64 0), i32* %6)
  %17 = getelementptr inbounds [1000 x double], [1000 x double]* %2, i64 0, i64 0
  store double 2.000000e+00, double* %17, align 16
  %18 = getelementptr inbounds [1000 x double], [1000 x double]* %3, i64 0, i64 0
  store double 1.000000e+00, double* %18, align 16
  store double 2.000000e+00, double* %5, align 8
  store i32 1, i32* %8, align 4
  br label %19

19:                                               ; preds = %64, %15
  %20 = load i32, i32* %8, align 4
  %21 = load i32, i32* %6, align 4
  %22 = icmp slt i32 %20, %21
  br i1 %22, label %23, label %67

23:                                               ; preds = %19
  %24 = load i32, i32* %8, align 4
  %25 = sub nsw i32 %24, 1
  %26 = sext i32 %25 to i64
  %27 = getelementptr inbounds [1000 x double], [1000 x double]* %2, i64 0, i64 %26
  %28 = load double, double* %27, align 8
  %29 = load i32, i32* %8, align 4
  %30 = sub nsw i32 %29, 1
  %31 = sext i32 %30 to i64
  %32 = getelementptr inbounds [1000 x double], [1000 x double]* %3, i64 0, i64 %31
  %33 = load double, double* %32, align 8
  %34 = fadd double %28, %33
  %35 = load i32, i32* %8, align 4
  %36 = sext i32 %35 to i64
  %37 = getelementptr inbounds [1000 x double], [1000 x double]* %2, i64 0, i64 %36
  store double %34, double* %37, align 8
  %38 = load i32, i32* %8, align 4
  %39 = sub nsw i32 %38, 1
  %40 = sext i32 %39 to i64
  %41 = getelementptr inbounds [1000 x double], [1000 x double]* %2, i64 0, i64 %40
  %42 = load double, double* %41, align 8
  %43 = load i32, i32* %8, align 4
  %44 = sext i32 %43 to i64
  %45 = getelementptr inbounds [1000 x double], [1000 x double]* %3, i64 0, i64 %44
  store double %42, double* %45, align 8
  %46 = load i32, i32* %8, align 4
  %47 = sext i32 %46 to i64
  %48 = getelementptr inbounds [1000 x double], [1000 x double]* %2, i64 0, i64 %47
  %49 = load double, double* %48, align 8
  %50 = load i32, i32* %8, align 4
  %51 = sext i32 %50 to i64
  %52 = getelementptr inbounds [1000 x double], [1000 x double]* %3, i64 0, i64 %51
  %53 = load double, double* %52, align 8
  %54 = fdiv double %49, %53
  %55 = load i32, i32* %8, align 4
  %56 = sext i32 %55 to i64
  %57 = getelementptr inbounds [1000 x double], [1000 x double]* %4, i64 0, i64 %56
  store double %54, double* %57, align 8
  %58 = load i32, i32* %8, align 4
  %59 = sext i32 %58 to i64
  %60 = getelementptr inbounds [1000 x double], [1000 x double]* %4, i64 0, i64 %59
  %61 = load double, double* %60, align 8
  %62 = load double, double* %5, align 8
  %63 = fadd double %62, %61
  store double %63, double* %5, align 8
  br label %64

64:                                               ; preds = %23
  %65 = load i32, i32* %8, align 4
  %66 = add nsw i32 %65, 1
  store i32 %66, i32* %8, align 4
  br label %19

67:                                               ; preds = %19
  %68 = load double, double* %5, align 8
  %69 = call i32 (i8*, ...) @printf(i8* getelementptr inbounds ([7 x i8], [7 x i8]* @.str.1, i64 0, i64 0), double %68)
  br label %70

70:                                               ; preds = %67
  %71 = load i32, i32* %9, align 4
  %72 = add nsw i32 %71, 1
  store i32 %72, i32* %9, align 4
  br label %11

73:                                               ; preds = %11
  ret i32 0
}

declare dso_local i32 @__isoc99_scanf(i8*, ...) #1

declare dso_local i32 @printf(i8*, ...) #1


!llvm.module.flags = !{!0}
!llvm.ident = !{!1}

!0 = !{i32 1, !"wchar_size", i32 4}
!1 = !{!"clang version 10.0.0-4ubuntu1 "}
